; Function Attrs: mustprogress uwtable
define hidden noundef zeroext i1 @_ZN15bv2int_rewriter7is_zeroEP4expr(ptr noundef nonnull align 8 dereferenceable(56) %0, ptr noundef %1) local_unnamed_addr #3 align 2 personality ptr @__gxx_personality_v0 {
  %3 = alloca %class.rational, align 8
  %4 = alloca i32, align 4
  call void @llvm.lifetime.start.p0(i64 32, ptr nonnull %3) #23
  store i32 0, ptr %3, align 8, !tbaa !59
  %5 = getelementptr inbounds nuw i8, ptr %3, i64 4
  store i8 0, ptr %5, align 4
  %6 = getelementptr inbounds nuw i8, ptr %3, i64 8
  store ptr null, ptr %6, align 8, !tbaa !62
  %7 = getelementptr inbounds nuw i8, ptr %3, i64 16
  store i32 1, ptr %7, align 8, !tbaa !59
  %8 = getelementptr inbounds nuw i8, ptr %3, i64 20
  store i8 0, ptr %8, align 4
  %9 = getelementptr inbounds nuw i8, ptr %3, i64 24
  store ptr null, ptr %9, align 8, !tbaa !62
  call void @llvm.lifetime.start.p0(i64 4, ptr nonnull %4) #23
  %10 = getelementptr inbounds nuw i8, ptr %0, i64 16
  %11 = invoke noundef zeroext i1 @_ZNK14bv_recognizers10is_numeralEPK4exprR8rationalRj(ptr noundef nonnull align 4 dereferenceable(4) %10, ptr noundef %1, ptr noundef nonnull align 8 dereferenceable(32) %3, ptr noundef nonnull align 4 dereferenceable(4) %4)
          to label %12 unwind label %20

12:                                               ; preds = %2
  %13 = load i32, ptr %3, align 8
  call void @llvm.lifetime.end.p0(i64 4, ptr nonnull %4) #23
  %14 = load ptr, ptr @_ZN8rational13g_mpq_managerE, align 8, !tbaa !74
  invoke void @_ZN11mpz_managerILb1EE3delEPS0_R3mpz(ptr noundef %14, ptr noundef nonnull align 8 dereferenceable(32) %3)
          to label %.noexc.i unwind label %15

.noexc.i:                                         ; preds = %12
  invoke void @_ZN11mpz_managerILb1EE3delEPS0_R3mpz(ptr noundef %14, ptr noundef nonnull align 8 dereferenceable(16) %7)
          to label %_ZN8rationalD2Ev.exit unwind label %15

15:                                               ; preds = %.noexc.i, %12
  %16 = landingpad { ptr, i32 }
          catch ptr null
  %17 = extractvalue { ptr, i32 } %16, 0
  call void @__clang_call_terminate(ptr %17) #24
  unreachable

_ZN8rationalD2Ev.exit:                            ; preds = %.noexc.i
  %18 = icmp eq i32 %13, 0
  %19 = select i1 %11, i1 %18, i1 false
  call void @llvm.lifetime.end.p0(i64 32, ptr nonnull %3) #23
  ret i1 %19

20:                                               ; preds = %2
  %21 = landingpad { ptr, i32 }
          cleanup
  call void @llvm.lifetime.end.p0(i64 4, ptr nonnull %4) #23
  call void @_ZN8rationalD2Ev(ptr noundef nonnull align 8 dereferenceable(32) %3) #23
  call void @llvm.lifetime.end.p0(i64 32, ptr nonnull %3) #23
  resume { ptr, i32 } %21
}